; Function Attrs: null_pointer_is_valid sspstrong uwtable
define internal i32 @dissect_SuccessfulOutcomeValue(ptr noundef %0, ptr noundef %1, ptr noundef %2, ptr readnone captures(none) %3) #0 {
  %5 = getelementptr inbounds nuw i8, ptr %1, i64 408
  %6 = load ptr, ptr %5, align 8
  %7 = load i32, ptr @proto_rnsap, align 4
  %8 = tail call ptr @p_get_proto_data(ptr noundef %6, ptr noundef %1, i32 noundef %7, i32 noundef 0)
  %.not.i = icmp eq ptr %8, null
  br i1 %.not.i, label %9, label %rnsap_get_private_data.exit

9:                                                ; preds = %4
  %10 = load ptr, ptr %5, align 8
  %11 = tail call noalias dereferenceable_or_null(32) ptr @wmem_alloc0(ptr noundef %10, i64 noundef 32) #5
  store i32 65535, ptr %11, align 8
  %12 = getelementptr inbounds nuw i8, ptr %11, i64 8
  store i32 65535, ptr %12, align 8
  %13 = load ptr, ptr %5, align 8
  %14 = load i32, ptr @proto_rnsap, align 4
  tail call void @p_add_proto_data(ptr noundef %13, ptr noundef %1, i32 noundef %14, i32 noundef 0, ptr noundef %11)
  br label %rnsap_get_private_data.exit

rnsap_get_private_data.exit:                      ; preds = %4, %9
  %.0.i = phi ptr [ %8, %4 ], [ %11, %9 ]
  %15 = getelementptr inbounds nuw i8, ptr %.0.i, i64 16
  %16 = load ptr, ptr %15, align 8
  %.not = icmp eq ptr %16, null
  br i1 %.not, label %22, label %17

17:                                               ; preds = %rnsap_get_private_data.exit
  %18 = load ptr, ptr @rnsap_proc_sout_dissector_table, align 8
  %19 = tail call i32 @dissector_try_string_with_data(ptr noundef %18, ptr noundef nonnull %16, ptr noundef %0, ptr noundef %1, ptr noundef %2, i1 noundef zeroext true, ptr noundef null)
  %.not8 = icmp eq i32 %19, 0
  br i1 %.not8, label %22, label %20

20:                                               ; preds = %17
  %21 = tail call i32 @tvb_captured_length(ptr noundef %0)
  br label %22

22:                                               ; preds = %20, %17, %rnsap_get_private_data.exit
  %.0 = phi i32 [ 0, %rnsap_get_private_data.exit ], [ %21, %20 ], [ 0, %17 ]
  ret i32 %.0
}